target datalayout = "e-m:e-p270:32:32-p271:32:32-p272:64:64-i64:64-i128:128-f80:128-n8:16:32:64-S128"
target triple = "x86_64-pc-linux-gnu"

%struct.AVFilterContext = type { ptr, ptr, ptr, ptr, ptr, i32, ptr, ptr, i32, ptr, ptr, i32, i32, ptr, ptr, ptr, ptr, i32, ptr, i32, i32 }
%struct.LUT3DContext = type { ptr, ptr, i32, i32, %struct.rgbvec, i32, ptr, [4 x i8], i32, ptr, %struct.Lut3DPreLut, i32, i32, [4 x i8], i32, i32, i32, i32, i32, %struct.FFFrameSync }
%struct.rgbvec = type { float, float, float }
%struct.Lut3DPreLut = type { i32, [3 x float], [3 x float], [3 x float], [3 x ptr] }
%struct.FFFrameSync = type { ptr, ptr, i32, %struct.AVRational, i64, ptr, ptr, i32, i32, i8, i8, ptr, i32, i32, i32, i32 }
%struct.AVRational = type { i32, i32 }

; Function Attrs: cold nounwind optsize uwtable
define internal i32 @haldclut_init(ptr noundef %0) #0 {
  %2 = alloca ptr, align 8
  %3 = alloca ptr, align 8
  store ptr %0, ptr %2, align 8, !tbaa !4
  call void @llvm.lifetime.start.p0(i64 8, ptr %3) #16
  %4 = load ptr, ptr %2, align 8, !tbaa !4
  %5 = getelementptr inbounds nuw %struct.AVFilterContext, ptr %4, i32 0, i32 9
  %6 = load ptr, ptr %5, align 8, !tbaa !9
  store ptr %6, ptr %3, align 8, !tbaa !22
  %7 = load ptr, ptr %3, align 8, !tbaa !22
  %8 = getelementptr inbounds nuw %struct.LUT3DContext, ptr %7, i32 0, i32 4
  %9 = getelementptr inbounds nuw %struct.rgbvec, ptr %8, i32 0, i32 2
  store float 1.000000e+00, ptr %9, align 8, !tbaa !24
  %10 = load ptr, ptr %3, align 8, !tbaa !22
  %11 = getelementptr inbounds nuw %struct.LUT3DContext, ptr %10, i32 0, i32 4
  %12 = getelementptr inbounds nuw %struct.rgbvec, ptr %11, i32 0, i32 1
  store float 1.000000e+00, ptr %12, align 4, !tbaa !34
  %13 = load ptr, ptr %3, align 8, !tbaa !22
  %14 = getelementptr inbounds nuw %struct.LUT3DContext, ptr %13, i32 0, i32 4
  %15 = getelementptr inbounds nuw %struct.rgbvec, ptr %14, i32 0, i32 0
  store float 1.000000e+00, ptr %15, align 8, !tbaa !35
  %16 = load ptr, ptr %3, align 8, !tbaa !22
  %17 = getelementptr inbounds nuw %struct.LUT3DContext, ptr %16, i32 0, i32 19
  %18 = getelementptr inbounds nuw %struct.FFFrameSync, ptr %17, i32 0, i32 5
  store ptr @update_apply_clut, ptr %18, align 8, !tbaa !47
  call void @llvm.lifetime.end.p0(i64 8, ptr %3) #16
  ret i32 0
}