; Function Attrs: cold mustprogress nofree norecurse nosync nounwind optsize willreturn memory(write, argmem: readwrite, inaccessiblemem: none) uwtable
define internal noundef i32 @haldclut_init(ptr noundef readonly captures(none) %0) #2 {
  %2 = getelementptr inbounds nuw i8, ptr %0, i64 72
  %3 = load ptr, ptr %2, align 8, !tbaa !4
  %4 = getelementptr inbounds nuw i8, ptr %3, i64 24
  %5 = getelementptr inbounds nuw i8, ptr %3, i64 32
  store float 1.000000e+00, ptr %5, align 8, !tbaa !20
  %6 = getelementptr inbounds nuw i8, ptr %3, i64 28
  store float 1.000000e+00, ptr %6, align 4, !tbaa !31
  store float 1.000000e+00, ptr %4, align 8, !tbaa !32
  %7 = getelementptr inbounds nuw i8, ptr %3, i64 200
  store ptr @update_apply_clut, ptr %7, align 8, !tbaa !80
  ret i32 0
}